#include <math.h>
#include <stdio.h>
#include <stdlib.h>
#include <string.h>
#include <iostream>
using namespace std;

//********************************
//*???????????   **
//*?????? 1300012957 **
//*???2013.11.25  **
//********************************
int main ( )
{
	int s=0,t=0,a[100000]={0};
	int n,i,j,k;
	
	cin >> n ;
	
	for( i = 1;i <= n;i++ )
	{
		cin >> a[i-1] ;       //??????
	}
	
	cin >> k ;                //????????
	
	for( j = 1;j <= n;j++ )   //?for??????????k??????
	{
		if( a[j-1] != k )
			t++;              //?t?????k???????????????????????	
	}
	for( j = 1;j <= n;j++ )   
	{
		if( a[j-1] != k )     //???k?????
		{
		    s++;
			if( s <= t-1 )    //?????????k???s?t????????????
			{
				cout<< a[j-1] << " ";
			}
			else              //??????????????
			cout << a[j-1] ;
		}
	}
	return 0 ;
}
